(dp1
S'std'
p2
cnumpy.core.multiarray
_reconstruct
p3
(cnumpy
ndarray
p4
(I0
tS'b'
tRp5
(I1
(I3
tcnumpy
dtype
p6
(S'f4'
I0
I1
tRp7
(I3
S'<'
NNNI-1
I-1
I0
tbI00
S'D\x87\xab>}\x87\xa8>\xd0^\xb4>'
tbsS'dataset_loc'
p8
S'../Dataset_final/train/'
p9
sS'mean'
p10
g3
(g4
(I0
tS'b'
tRp11
(I1
(I3
tg7
I00
S"\xdf\x82'?J\xe5&?\xda\xe5\x1e?"
tbs.